; Function Attrs: nounwind uwtable
define internal range(i32 0, 2) i32 @IoCommandWriteCellNet(ptr noundef readonly captures(none) %0, i32 noundef %1, ptr noundef %2) #0 {
  tail call void (...) @Extra_UtilGetoptReset() #18
  %4 = tail call i32 @Extra_UtilGetopt(i32 noundef %1, ptr noundef %2, ptr noundef nonnull @.str.165) #18
  %.not = icmp eq i32 %4, -1
  br i1 %.not, label %5, label %25

5:                                                ; preds = %3
  %6 = getelementptr inbounds nuw i8, ptr %0, i64 48
  %7 = load ptr, ptr %6, align 8, !tbaa !49
  %8 = icmp eq ptr %7, null
  br i1 %8, label %9, label %13

9:                                                ; preds = %5
  %10 = getelementptr inbounds nuw i8, ptr %0, i64 128
  %11 = load ptr, ptr %10, align 8, !tbaa !50
  %12 = tail call i64 @fwrite(ptr nonnull @.str.142, i64 15, i64 1, ptr %11)
  br label %35

13:                                               ; preds = %5
  %14 = load i32, ptr @globalUtilOptind, align 4, !tbaa !3
  %15 = add nsw i32 %14, 1
  %.not16 = icmp eq i32 %1, %15
  br i1 %.not16, label %16, label %25

16:                                               ; preds = %13
  %.val = load i32, ptr %7, align 8, !tbaa !74
  %.not18 = icmp eq i32 %.val, 2
  br i1 %.not18, label %21, label %17

17:                                               ; preds = %16
  %18 = getelementptr inbounds nuw i8, ptr %0, i64 128
  %19 = load ptr, ptr %18, align 8, !tbaa !50
  %20 = tail call i64 @fwrite(ptr nonnull @.str.279, i64 74, i64 1, ptr %19)
  br label %35

21:                                               ; preds = %16
  %22 = sext i32 %14 to i64
  %23 = getelementptr inbounds ptr, ptr %2, i64 %22
  %24 = load ptr, ptr %23, align 8, !tbaa !9
  tail call void @Io_WriteCellNet(ptr noundef nonnull %7, ptr noundef %24) #18
  br label %35

25:                                               ; preds = %13, %3
  %26 = getelementptr inbounds nuw i8, ptr %0, i64 136
  %27 = load ptr, ptr %26, align 8, !tbaa !34
  %28 = tail call i64 @fwrite(ptr nonnull @.str.280, i64 33, i64 1, ptr %27)
  %29 = load ptr, ptr %26, align 8, !tbaa !34
  %30 = tail call i64 @fwrite(ptr nonnull @.str.281, i64 51, i64 1, ptr %29)
  %31 = load ptr, ptr %26, align 8, !tbaa !34
  %32 = tail call i64 @fwrite(ptr nonnull @.str.233, i64 33, i64 1, ptr %31)
  %33 = load ptr, ptr %26, align 8, !tbaa !34
  %34 = tail call i64 @fwrite(ptr nonnull @.str.234, i64 40, i64 1, ptr %33)
  br label %35

35:                                               ; preds = %25, %21, %17, %9
  %.0 = phi i32 [ 1, %25 ], [ 0, %9 ], [ 0, %21 ], [ 0, %17 ]
  ret i32 %.0
}